target datalayout = "e-m:e-p270:32:32-p271:32:32-p272:64:64-i64:64-i128:128-f80:128-n8:16:32:64-S128"
target triple = "x86_64-pc-linux-gnu"

%"class.zmq::trie_t" = type { i32, i8, i16, i16, %union.anon }
%union.anon = type { ptr }

@stderr = external global ptr, align 8
@.str = private unnamed_addr constant [30 x i8] c"Assertion failed: %s (%s:%d)\0A\00", align 1
@.str.1 = private unnamed_addr constant [11 x i8] c"_next.node\00", align 1
@.str.2 = private unnamed_addr constant [104 x i8] c"generated/home/dtcxzyw/WorkSpace/Projects/compilers/llvm-opt-benchmark/bench/libzmq/libzmq/src/trie.cpp\00", align 1
@_ZN3zmq6trie_tD1Ev = unnamed_addr alias void (ptr), ptr @_ZN3zmq6trie_tD2Ev

; Function Attrs: mustprogress nounwind uwtable
define void @_ZN3zmq6trie_tD2Ev(ptr noundef nonnull align 8 dereferenceable(24) %0) unnamed_addr #0 align 2 personality ptr @__gxx_personality_v0 {
  %2 = alloca ptr, align 8
  %3 = alloca i16, align 2
  store ptr %0, ptr %2, align 8, !tbaa !3
  %4 = load ptr, ptr %2, align 8
  %5 = getelementptr inbounds nuw %"class.zmq::trie_t", ptr %4, i32 0, i32 2
  %6 = load i16, ptr %5, align 2, !tbaa !13
  %7 = zext i16 %6 to i32
  %8 = icmp eq i32 %7, 1
  br i1 %8, label %9, label %34

9:                                                ; preds = %1
  br label %10

10:                                               ; preds = %9
  %11 = getelementptr inbounds nuw %"class.zmq::trie_t", ptr %4, i32 0, i32 4
  %12 = load ptr, ptr %11, align 8, !tbaa !15
  %13 = icmp ne ptr %12, null
  %14 = xor i1 %13, true
  %15 = zext i1 %14 to i64
  %16 = call i64 @llvm.expect.i64(i64 %15, i64 0)
  %17 = icmp ne i64 %16, 0
  br i1 %17, label %18, label %25

18:                                               ; preds = %10
  %19 = load ptr, ptr @stderr, align 8, !tbaa !16
  %20 = call i32 (ptr, ptr, ...) @fprintf(ptr noundef %19, ptr noundef @.str, ptr noundef @.str.1, ptr noundef @.str.2, i32 noundef 20) #13
  %21 = load ptr, ptr @stderr, align 8, !tbaa !16
  %22 = invoke i32 @fflush(ptr noundef %21)
          to label %23 unwind label %71

23:                                               ; preds = %18
  invoke void @_ZN3zmq9zmq_abortEPKc(ptr noundef @.str.1)
          to label %24 unwind label %71

24:                                               ; preds = %23
  br label %25

25:                                               ; preds = %24, %10
  br label %26

26:                                               ; preds = %25
  br label %27

27:                                               ; preds = %26
  %28 = getelementptr inbounds nuw %"class.zmq::trie_t", ptr %4, i32 0, i32 4
  %29 = load ptr, ptr %28, align 8, !tbaa !15
  %30 = icmp eq ptr %29, null
  br i1 %30, label %32, label %31

31:                                               ; preds = %27
  call void @_ZN3zmq6trie_tD1Ev(ptr noundef nonnull align 8 dereferenceable(24) %29) #13
  call void @_ZdlPv(ptr noundef %29) #14
  br label %32

32:                                               ; preds = %31, %27
  %33 = getelementptr inbounds nuw %"class.zmq::trie_t", ptr %4, i32 0, i32 4
  store ptr null, ptr %33, align 8, !tbaa !15
  br label %70

34:                                               ; preds = %1
  %35 = getelementptr inbounds nuw %"class.zmq::trie_t", ptr %4, i32 0, i32 2
  %36 = load i16, ptr %35, align 2, !tbaa !13
  %37 = zext i16 %36 to i32
  %38 = icmp sgt i32 %37, 1
  br i1 %38, label %39, label %69

39:                                               ; preds = %34
  call void @llvm.lifetime.start.p0(i64 2, ptr %3) #13
  store i16 0, ptr %3, align 2, !tbaa !18
  br label %40

40:                                               ; preds = %63, %39
  %41 = load i16, ptr %3, align 2, !tbaa !18
  %42 = zext i16 %41 to i32
  %43 = getelementptr inbounds nuw %"class.zmq::trie_t", ptr %4, i32 0, i32 2
  %44 = load i16, ptr %43, align 2, !tbaa !13
  %45 = zext i16 %44 to i32
  %46 = icmp ne i32 %42, %45
  br i1 %46, label %48, label %47

47:                                               ; preds = %40
  call void @llvm.lifetime.end.p0(i64 2, ptr %3) #13
  br label %66

48:                                               ; preds = %40
  %49 = getelementptr inbounds nuw %"class.zmq::trie_t", ptr %4, i32 0, i32 4
  %50 = load ptr, ptr %49, align 8, !tbaa !15
  %51 = load i16, ptr %3, align 2, !tbaa !18
  %52 = zext i16 %51 to i64
  %53 = getelementptr inbounds nuw ptr, ptr %50, i64 %52
  %54 = load ptr, ptr %53, align 8, !tbaa !3
  %55 = icmp eq ptr %54, null
  br i1 %55, label %57, label %56

56:                                               ; preds = %48
  call void @_ZN3zmq6trie_tD1Ev(ptr noundef nonnull align 8 dereferenceable(24) %54) #13
  call void @_ZdlPv(ptr noundef %54) #14
  br label %57

57:                                               ; preds = %56, %48
  %58 = getelementptr inbounds nuw %"class.zmq::trie_t", ptr %4, i32 0, i32 4
  %59 = load ptr, ptr %58, align 8, !tbaa !15
  %60 = load i16, ptr %3, align 2, !tbaa !18
  %61 = zext i16 %60 to i64
  %62 = getelementptr inbounds nuw ptr, ptr %59, i64 %61
  store ptr null, ptr %62, align 8, !tbaa !3
  br label %63

63:                                               ; preds = %57
  %64 = load i16, ptr %3, align 2, !tbaa !18
  %65 = add i16 %64, 1
  store i16 %65, ptr %3, align 2, !tbaa !18
  br label %40, !llvm.loop !19

66:                                               ; preds = %47
  %67 = getelementptr inbounds nuw %"class.zmq::trie_t", ptr %4, i32 0, i32 4
  %68 = load ptr, ptr %67, align 8, !tbaa !15
  call void @free(ptr noundef %68) #13
  br label %69

69:                                               ; preds = %66, %34
  br label %70

70:                                               ; preds = %69, %32
  ret void

71:                                               ; preds = %23, %18
  %72 = landingpad { ptr, i32 }
          catch ptr null
  %73 = extractvalue { ptr, i32 } %72, 0
  call void @__clang_call_terminate(ptr %73) #15
  unreachable
}