; Function Attrs: mustprogress nounwind uwtable
define void @_ZN3zmq6trie_tD2Ev(ptr noundef nonnull align 8 captures(none) dereferenceable(24) %0) unnamed_addr #1 align 2 personality ptr @__gxx_personality_v0 {
  %2 = getelementptr inbounds nuw i8, ptr %0, i64 6
  %3 = load i16, ptr %2, align 2, !tbaa !10
  switch i16 %3, label %.lr.ph [
    i16 1, label %5
    i16 0, label %32
  ]

.lr.ph:                                           ; preds = %1
  %4 = getelementptr inbounds nuw i8, ptr %0, i64 16
  br label %19

5:                                                ; preds = %1
  %6 = getelementptr inbounds nuw i8, ptr %0, i64 16
  %7 = load ptr, ptr %6, align 8, !tbaa !12
  %.not8 = icmp eq ptr %7, null
  br i1 %.not8, label %8, label %.thread, !prof !13

8:                                                ; preds = %5
  %9 = load ptr, ptr @stderr, align 8, !tbaa !14
  %10 = tail call i32 (ptr, ptr, ...) @fprintf(ptr noundef %9, ptr noundef nonnull @.str, ptr noundef nonnull @.str.1, ptr noundef nonnull @.str.2, i32 noundef 20) #17
  %11 = load ptr, ptr @stderr, align 8, !tbaa !14
  %12 = tail call i32 @fflush(ptr noundef %11)
  invoke void @_ZN3zmq9zmq_abortEPKc(ptr noundef nonnull @.str.1)
          to label %13 unwind label %33

13:                                               ; preds = %8
  %.pr = load ptr, ptr %6, align 8, !tbaa !12
  %14 = icmp eq ptr %.pr, null
  br i1 %14, label %16, label %.thread

.thread:                                          ; preds = %5, %13
  %15 = phi ptr [ %.pr, %13 ], [ %7, %5 ]
  tail call void @_ZN3zmq6trie_tD1Ev(ptr noundef nonnull align 8 dereferenceable(24) %15) #18
  tail call void @_ZdlPv(ptr noundef nonnull %15) #19
  br label %16

16:                                               ; preds = %.thread, %13
  store ptr null, ptr %6, align 8, !tbaa !12
  br label %32

._crit_edge:                                      ; preds = %27
  %17 = getelementptr inbounds nuw i8, ptr %0, i64 16
  %18 = load ptr, ptr %17, align 8, !tbaa !12
  tail call void @free(ptr noundef %18) #18
  br label %32

19:                                               ; preds = %.lr.ph, %27
  %20 = phi i16 [ %3, %.lr.ph ], [ %28, %27 ]
  %.010 = phi i16 [ 0, %.lr.ph ], [ %31, %27 ]
  %21 = load ptr, ptr %4, align 8, !tbaa !12
  %22 = zext i16 %.010 to i64
  %23 = getelementptr inbounds nuw ptr, ptr %21, i64 %22
  %24 = load ptr, ptr %23, align 8, !tbaa !17
  %25 = icmp eq ptr %24, null
  br i1 %25, label %27, label %26

26:                                               ; preds = %19
  tail call void @_ZN3zmq6trie_tD1Ev(ptr noundef nonnull align 8 dereferenceable(24) %24) #18
  tail call void @_ZdlPv(ptr noundef nonnull %24) #19
  %.pre = load ptr, ptr %4, align 8, !tbaa !12
  %.pre11 = load i16, ptr %2, align 2, !tbaa !10
  br label %27

27:                                               ; preds = %26, %19
  %28 = phi i16 [ %.pre11, %26 ], [ %20, %19 ]
  %29 = phi ptr [ %.pre, %26 ], [ %21, %19 ]
  %30 = getelementptr inbounds nuw ptr, ptr %29, i64 %22
  store ptr null, ptr %30, align 8, !tbaa !17
  %31 = add i16 %.010, 1
  %.not7 = icmp eq i16 %31, %28
  br i1 %.not7, label %._crit_edge, label %19, !llvm.loop !19

32:                                               ; preds = %1, %._crit_edge, %16
  ret void

33:                                               ; preds = %8
  %34 = landingpad { ptr, i32 }
          catch ptr null
  %35 = extractvalue { ptr, i32 } %34, 0
  tail call void @__clang_call_terminate(ptr %35) #20
  unreachable
}